; ModuleID = '2/832.c'
source_filename = "2/832.c"
target datalayout = "e-m:e-p270:32:32-p271:32:32-p272:64:64-i64:64-f80:128-n8:16:32:64-S128"
target triple = "x86_64-pc-linux-gnu"

%struct.xinxi = type { i32, [20 x i8] }

@.str = private unnamed_addr constant [3 x i8] c"%d\00", align 1
@.str.1 = private unnamed_addr constant [5 x i8] c"%d%s\00", align 1
@a = common dso_local global [1000 x %struct.xinxi] zeroinitializer, align 16
@.str.2 = private unnamed_addr constant [7 x i8] c"%c\0A%d\0A\00", align 1
@.str.3 = private unnamed_addr constant [4 x i8] c"%d\0A\00", align 1

; Function Attrs: noinline nounwind uwtable
define dso_local void @main() #0 {
  %1 = alloca i32, align 4
  %2 = alloca i32, align 4
  %3 = alloca i32, align 4
  %4 = alloca i32, align 4
  %5 = alloca [26 x i32], align 16
  %6 = alloca i32, align 4
  %7 = alloca i32, align 4
  %8 = alloca i8, align 1
  %9 = bitcast [26 x i32]* %5 to i8*
  call void @llvm.memset.p0i8.i64(i8* align 16 %9, i8 0, i64 104, i1 false)
  store i32 0, i32* %6, align 4
  store i32 0, i32* %7, align 4
  %10 = call i32 (i8*, ...) @__isoc99_scanf(i8* getelementptr inbounds ([3 x i8], [3 x i8]* @.str, i64 0, i64 0), i32* %1)
  store i32 0, i32* %2, align 4
  br label %11

11:                                               ; preds = %26, %0
  %12 = load i32, i32* %2, align 4
  %13 = load i32, i32* %1, align 4
  %14 = icmp slt i32 %12, %13
  br i1 %14, label %15, label %29

15:                                               ; preds = %11
  %16 = load i32, i32* %2, align 4
  %17 = sext i32 %16 to i64
  %18 = getelementptr inbounds [1000 x %struct.xinxi], [1000 x %struct.xinxi]* @a, i64 0, i64 %17
  %19 = getelementptr inbounds %struct.xinxi, %struct.xinxi* %18, i32 0, i32 0
  %20 = load i32, i32* %2, align 4
  %21 = sext i32 %20 to i64
  %22 = getelementptr inbounds [1000 x %struct.xinxi], [1000 x %struct.xinxi]* @a, i64 0, i64 %21
  %23 = getelementptr inbounds %struct.xinxi, %struct.xinxi* %22, i32 0, i32 1
  %24 = getelementptr inbounds [20 x i8], [20 x i8]* %23, i64 0, i64 0
  %25 = call i32 (i8*, ...) @__isoc99_scanf(i8* getelementptr inbounds ([5 x i8], [5 x i8]* @.str.1, i64 0, i64 0), i32* %19, i8* %24)
  br label %26

26:                                               ; preds = %15
  %27 = load i32, i32* %2, align 4
  %28 = add nsw i32 %27, 1
  store i32 %28, i32* %2, align 4
  br label %11

29:                                               ; preds = %11
  store i32 0, i32* %2, align 4
  br label %30

30:                                               ; preds = %65, %29
  %31 = load i32, i32* %2, align 4
  %32 = load i32, i32* %1, align 4
  %33 = icmp slt i32 %31, %32
  br i1 %33, label %34, label %68

34:                                               ; preds = %30
  %35 = load i32, i32* %2, align 4
  %36 = sext i32 %35 to i64
  %37 = getelementptr inbounds [1000 x %struct.xinxi], [1000 x %struct.xinxi]* @a, i64 0, i64 %36
  %38 = getelementptr inbounds %struct.xinxi, %struct.xinxi* %37, i32 0, i32 1
  %39 = getelementptr inbounds [20 x i8], [20 x i8]* %38, i64 0, i64 0
  %40 = call i64 @strlen(i8* %39) #4
  %41 = trunc i64 %40 to i32
  store i32 %41, i32* %3, align 4
  store i32 0, i32* %4, align 4
  br label %42

42:                                               ; preds = %61, %34
  %43 = load i32, i32* %4, align 4
  %44 = load i32, i32* %3, align 4
  %45 = icmp slt i32 %43, %44
  br i1 %45, label %46, label %64

46:                                               ; preds = %42
  %47 = load i32, i32* %2, align 4
  %48 = sext i32 %47 to i64
  %49 = getelementptr inbounds [1000 x %struct.xinxi], [1000 x %struct.xinxi]* @a, i64 0, i64 %48
  %50 = getelementptr inbounds %struct.xinxi, %struct.xinxi* %49, i32 0, i32 1
  %51 = load i32, i32* %4, align 4
  %52 = sext i32 %51 to i64
  %53 = getelementptr inbounds [20 x i8], [20 x i8]* %50, i64 0, i64 %52
  %54 = load i8, i8* %53, align 1
  %55 = sext i8 %54 to i32
  %56 = sub nsw i32 %55, 65
  %57 = sext i32 %56 to i64
  %58 = getelementptr inbounds [26 x i32], [26 x i32]* %5, i64 0, i64 %57
  %59 = load i32, i32* %58, align 4
  %60 = add nsw i32 %59, 1
  store i32 %60, i32* %58, align 4
  br label %61

61:                                               ; preds = %46
  %62 = load i32, i32* %4, align 4
  %63 = add nsw i32 %62, 1
  store i32 %63, i32* %4, align 4
  br label %42

64:                                               ; preds = %42
  br label %65

65:                                               ; preds = %64
  %66 = load i32, i32* %2, align 4
  %67 = add nsw i32 %66, 1
  store i32 %67, i32* %2, align 4
  br label %30

68:                                               ; preds = %30
  store i32 0, i32* %2, align 4
  br label %69

69:                                               ; preds = %86, %68
  %70 = load i32, i32* %2, align 4
  %71 = icmp slt i32 %70, 26
  br i1 %71, label %72, label %89

72:                                               ; preds = %69
  %73 = load i32, i32* %2, align 4
  %74 = sext i32 %73 to i64
  %75 = getelementptr inbounds [26 x i32], [26 x i32]* %5, i64 0, i64 %74
  %76 = load i32, i32* %75, align 4
  %77 = load i32, i32* %6, align 4
  %78 = icmp sgt i32 %76, %77
  br i1 %78, label %79, label %85

79:                                               ; preds = %72
  %80 = load i32, i32* %2, align 4
  %81 = sext i32 %80 to i64
  %82 = getelementptr inbounds [26 x i32], [26 x i32]* %5, i64 0, i64 %81
  %83 = load i32, i32* %82, align 4
  store i32 %83, i32* %6, align 4
  %84 = load i32, i32* %2, align 4
  store i32 %84, i32* %7, align 4
  br label %85

85:                                               ; preds = %79, %72
  br label %86

86:                                               ; preds = %85
  %87 = load i32, i32* %2, align 4
  %88 = add nsw i32 %87, 1
  store i32 %88, i32* %2, align 4
  br label %69

89:                                               ; preds = %69
  %90 = load i32, i32* %7, align 4
  %91 = add nsw i32 %90, 65
  %92 = trunc i32 %91 to i8
  store i8 %92, i8* %8, align 1
  %93 = load i8, i8* %8, align 1
  %94 = sext i8 %93 to i32
  %95 = load i32, i32* %6, align 4
  %96 = call i32 (i8*, ...) @printf(i8* getelementptr inbounds ([7 x i8], [7 x i8]* @.str.2, i64 0, i64 0), i32 %94, i32 %95)
  store i32 0, i32* %2, align 4
  br label %97

97:                                               ; preds = %138, %89
  %98 = load i32, i32* %2, align 4
  %99 = load i32, i32* %1, align 4
  %100 = icmp slt i32 %98, %99
  br i1 %100, label %101, label %141

101:                                              ; preds = %97
  %102 = load i32, i32* %2, align 4
  %103 = sext i32 %102 to i64
  %104 = getelementptr inbounds [1000 x %struct.xinxi], [1000 x %struct.xinxi]* @a, i64 0, i64 %103
  %105 = getelementptr inbounds %struct.xinxi, %struct.xinxi* %104, i32 0, i32 1
  %106 = getelementptr inbounds [20 x i8], [20 x i8]* %105, i64 0, i64 0
  %107 = call i64 @strlen(i8* %106) #4
  %108 = trunc i64 %107 to i32
  store i32 %108, i32* %3, align 4
  store i32 0, i32* %4, align 4
  br label %109

109:                                              ; preds = %134, %101
  %110 = load i32, i32* %4, align 4
  %111 = load i32, i32* %3, align 4
  %112 = icmp slt i32 %110, %111
  br i1 %112, label %113, label %137

113:                                              ; preds = %109
  %114 = load i32, i32* %2, align 4
  %115 = sext i32 %114 to i64
  %116 = getelementptr inbounds [1000 x %struct.xinxi], [1000 x %struct.xinxi]* @a, i64 0, i64 %115
  %117 = getelementptr inbounds %struct.xinxi, %struct.xinxi* %116, i32 0, i32 1
  %118 = load i32, i32* %4, align 4
  %119 = sext i32 %118 to i64
  %120 = getelementptr inbounds [20 x i8], [20 x i8]* %117, i64 0, i64 %119
  %121 = load i8, i8* %120, align 1
  %122 = sext i8 %121 to i32
  %123 = load i8, i8* %8, align 1
  %124 = sext i8 %123 to i32
  %125 = icmp eq i32 %122, %124
  br i1 %125, label %126, label %133

126:                                              ; preds = %113
  %127 = load i32, i32* %2, align 4
  %128 = sext i32 %127 to i64
  %129 = getelementptr inbounds [1000 x %struct.xinxi], [1000 x %struct.xinxi]* @a, i64 0, i64 %128
  %130 = getelementptr inbounds %struct.xinxi, %struct.xinxi* %129, i32 0, i32 0
  %131 = load i32, i32* %130, align 8
  %132 = call i32 (i8*, ...) @printf(i8* getelementptr inbounds ([4 x i8], [4 x i8]* @.str.3, i64 0, i64 0), i32 %131)
  br label %133

133:                                              ; preds = %126, %113
  br label %134

134:                                              ; preds = %133
  %135 = load i32, i32* %4, align 4
  %136 = add nsw i32 %135, 1
  store i32 %136, i32* %4, align 4
  br label %109

137:                                              ; preds = %109
  br label %138

138:                                              ; preds = %137
  %139 = load i32, i32* %2, align 4
  %140 = add nsw i32 %139, 1
  store i32 %140, i32* %2, align 4
  br label %97

141:                                              ; preds = %97
  ret void
}

; Function Attrs: argmemonly nounwind willreturn
declare void @llvm.memset.p0i8.i64(i8* nocapture writeonly, i8, i64, i1 immarg) #1

declare dso_local i32 @__isoc99_scanf(i8*, ...) #2

; Function Attrs: nounwind readonly
declare dso_local i64 @strlen(i8*) #3

declare dso_local i32 @printf(i8*, ...) #2


!llvm.module.flags = !{!0}
!llvm.ident = !{!1}

!0 = !{i32 1, !"wchar_size", i32 4}
!1 = !{!"clang version 10.0.0-4ubuntu1 "}
